; Function Attrs: mustprogress uwtable
define void @_ZN5Ipopt23RestoIterateInitializer15solve_quadraticERKNS_6VectorES3_RS1_(ptr nonnull readnone align 8 captures(none) %0, ptr noundef nonnull align 8 dereferenceable(205) %1, ptr noundef nonnull align 8 dereferenceable(205) %2, ptr noundef nonnull align 8 dereferenceable(205) %3) local_unnamed_addr #4 align 2 {
  %5 = load ptr, ptr %3, align 8, !tbaa !8
  %6 = getelementptr inbounds nuw i8, ptr %5, i64 16
  %7 = load ptr, ptr %6, align 8
  tail call void %7(ptr noundef nonnull align 8 dereferenceable(205) %3, ptr noundef nonnull align 8 dereferenceable(205) %1)
  tail call void @_ZN5Ipopt12TaggedObject13ObjectChangedEv(ptr noundef nonnull align 8 dereferenceable(205) %3)
  %8 = getelementptr inbounds nuw i8, ptr %1, i64 48
  %9 = load i32, ptr %8, align 8, !tbaa !71
  %10 = getelementptr inbounds nuw i8, ptr %1, i64 88
  %11 = load i32, ptr %10, align 8, !tbaa !109
  %12 = icmp eq i32 %9, %11
  br i1 %12, label %13, label %20

13:                                               ; preds = %4
  %14 = getelementptr inbounds nuw i8, ptr %3, i64 48
  %15 = load i32, ptr %14, align 8, !tbaa !71
  %16 = getelementptr inbounds nuw i8, ptr %3, i64 88
  store i32 %15, ptr %16, align 8, !tbaa !109
  %17 = getelementptr inbounds nuw i8, ptr %1, i64 96
  %18 = load double, ptr %17, align 8, !tbaa !110
  %19 = getelementptr inbounds nuw i8, ptr %3, i64 96
  store double %18, ptr %19, align 8, !tbaa !110
  br label %20

20:                                               ; preds = %13, %4
  %21 = getelementptr inbounds nuw i8, ptr %1, i64 104
  %22 = load i32, ptr %21, align 8, !tbaa !111
  %23 = icmp eq i32 %9, %22
  br i1 %23, label %24, label %31

24:                                               ; preds = %20
  %25 = getelementptr inbounds nuw i8, ptr %3, i64 48
  %26 = load i32, ptr %25, align 8, !tbaa !71
  %27 = getelementptr inbounds nuw i8, ptr %3, i64 104
  store i32 %26, ptr %27, align 8, !tbaa !111
  %28 = getelementptr inbounds nuw i8, ptr %1, i64 112
  %29 = load double, ptr %28, align 8, !tbaa !112
  %30 = getelementptr inbounds nuw i8, ptr %3, i64 112
  store double %29, ptr %30, align 8, !tbaa !112
  br label %31

31:                                               ; preds = %24, %20
  %32 = getelementptr inbounds nuw i8, ptr %1, i64 120
  %33 = load i32, ptr %32, align 8, !tbaa !57
  %34 = icmp eq i32 %9, %33
  br i1 %34, label %35, label %42

35:                                               ; preds = %31
  %36 = getelementptr inbounds nuw i8, ptr %3, i64 48
  %37 = load i32, ptr %36, align 8, !tbaa !71
  %38 = getelementptr inbounds nuw i8, ptr %3, i64 120
  store i32 %37, ptr %38, align 8, !tbaa !57
  %39 = getelementptr inbounds nuw i8, ptr %1, i64 128
  %40 = load double, ptr %39, align 8, !tbaa !72
  %41 = getelementptr inbounds nuw i8, ptr %3, i64 128
  store double %40, ptr %41, align 8, !tbaa !72
  br label %42

42:                                               ; preds = %35, %31
  %43 = getelementptr inbounds nuw i8, ptr %1, i64 136
  %44 = load i32, ptr %43, align 8, !tbaa !113
  %45 = icmp eq i32 %9, %44
  br i1 %45, label %46, label %53

46:                                               ; preds = %42
  %47 = getelementptr inbounds nuw i8, ptr %3, i64 48
  %48 = load i32, ptr %47, align 8, !tbaa !71
  %49 = getelementptr inbounds nuw i8, ptr %3, i64 136
  store i32 %48, ptr %49, align 8, !tbaa !113
  %50 = getelementptr inbounds nuw i8, ptr %1, i64 144
  %51 = load double, ptr %50, align 8, !tbaa !114
  %52 = getelementptr inbounds nuw i8, ptr %3, i64 144
  store double %51, ptr %52, align 8, !tbaa !114
  br label %53

53:                                               ; preds = %46, %42
  %54 = getelementptr inbounds nuw i8, ptr %1, i64 152
  %55 = load i32, ptr %54, align 8, !tbaa !115
  %56 = icmp eq i32 %9, %55
  br i1 %56, label %57, label %64

57:                                               ; preds = %53
  %58 = getelementptr inbounds nuw i8, ptr %3, i64 48
  %59 = load i32, ptr %58, align 8, !tbaa !71
  %60 = getelementptr inbounds nuw i8, ptr %3, i64 152
  store i32 %59, ptr %60, align 8, !tbaa !115
  %61 = getelementptr inbounds nuw i8, ptr %1, i64 160
  %62 = load double, ptr %61, align 8, !tbaa !116
  %63 = getelementptr inbounds nuw i8, ptr %3, i64 160
  store double %62, ptr %63, align 8, !tbaa !116
  br label %64

64:                                               ; preds = %57, %53
  %65 = getelementptr inbounds nuw i8, ptr %1, i64 168
  %66 = load i32, ptr %65, align 8, !tbaa !117
  %67 = icmp eq i32 %9, %66
  br i1 %67, label %68, label %75

68:                                               ; preds = %64
  %69 = getelementptr inbounds nuw i8, ptr %3, i64 48
  %70 = load i32, ptr %69, align 8, !tbaa !71
  %71 = getelementptr inbounds nuw i8, ptr %3, i64 168
  store i32 %70, ptr %71, align 8, !tbaa !117
  %72 = getelementptr inbounds nuw i8, ptr %1, i64 176
  %73 = load double, ptr %72, align 8, !tbaa !118
  %74 = getelementptr inbounds nuw i8, ptr %3, i64 176
  store double %73, ptr %74, align 8, !tbaa !118
  br label %75

75:                                               ; preds = %68, %64
  %76 = getelementptr inbounds nuw i8, ptr %1, i64 184
  %77 = load i32, ptr %76, align 8, !tbaa !119
  %78 = icmp eq i32 %9, %77
  br i1 %78, label %79, label %_ZN5Ipopt6Vector4CopyERKS0_.exit

79:                                               ; preds = %75
  %80 = getelementptr inbounds nuw i8, ptr %3, i64 48
  %81 = load i32, ptr %80, align 8, !tbaa !71
  %82 = getelementptr inbounds nuw i8, ptr %3, i64 184
  store i32 %81, ptr %82, align 8, !tbaa !119
  %83 = getelementptr inbounds nuw i8, ptr %1, i64 192
  %84 = load double, ptr %83, align 8, !tbaa !120
  %85 = getelementptr inbounds nuw i8, ptr %3, i64 192
  store double %84, ptr %85, align 8, !tbaa !120
  br label %_ZN5Ipopt6Vector4CopyERKS0_.exit

_ZN5Ipopt6Vector4CopyERKS0_.exit:                 ; preds = %75, %79
  %86 = load ptr, ptr %3, align 8, !tbaa !8
  %87 = getelementptr inbounds nuw i8, ptr %86, i64 88
  %88 = load ptr, ptr %87, align 8
  tail call void %88(ptr noundef nonnull align 8 dereferenceable(205) %3, ptr noundef nonnull align 8 dereferenceable(205) %1)
  tail call void @_ZN5Ipopt12TaggedObject13ObjectChangedEv(ptr noundef nonnull align 8 dereferenceable(205) %3)
  %89 = load ptr, ptr %3, align 8, !tbaa !8
  %90 = getelementptr inbounds nuw i8, ptr %89, i64 32
  %91 = load ptr, ptr %90, align 8
  tail call void %91(ptr noundef nonnull align 8 dereferenceable(205) %3, double noundef 1.000000e+00, ptr noundef nonnull align 8 dereferenceable(205) %2)
  tail call void @_ZN5Ipopt12TaggedObject13ObjectChangedEv(ptr noundef nonnull align 8 dereferenceable(205) %3)
  %92 = load ptr, ptr %3, align 8, !tbaa !8
  %93 = getelementptr inbounds nuw i8, ptr %92, i64 136
  %94 = load ptr, ptr %93, align 8
  tail call void %94(ptr noundef nonnull align 8 dereferenceable(205) %3)
  tail call void @_ZN5Ipopt12TaggedObject13ObjectChangedEv(ptr noundef nonnull align 8 dereferenceable(205) %3)
  %95 = load ptr, ptr %3, align 8, !tbaa !8
  %96 = getelementptr inbounds nuw i8, ptr %95, i64 32
  %97 = load ptr, ptr %96, align 8
  tail call void %97(ptr noundef nonnull align 8 dereferenceable(205) %3, double noundef 1.000000e+00, ptr noundef nonnull align 8 dereferenceable(205) %1)
  tail call void @_ZN5Ipopt12TaggedObject13ObjectChangedEv(ptr noundef nonnull align 8 dereferenceable(205) %3)
  ret void
}